target datalayout = "e-m:e-p270:32:32-p271:32:32-p272:64:64-i64:64-i128:128-f80:128-n8:16:32:64-S128"
target triple = "x86_64-pc-linux-gnu"

; Function Attrs: nounwind uwtable
define ptr @SzAlloc(ptr noundef %0, i64 noundef %1) #0 {
  %3 = alloca ptr, align 8
  %4 = alloca ptr, align 8
  %5 = alloca i64, align 8
  store ptr %0, ptr %4, align 8
  store i64 %1, ptr %5, align 8
  %6 = load i64, ptr %5, align 8
  %7 = icmp eq i64 %6, 0
  br i1 %7, label %8, label %9

8:                                                ; preds = %2
  store ptr null, ptr %3, align 8
  br label %12

9:                                                ; preds = %2
  %10 = load i64, ptr %5, align 8
  %11 = call noalias ptr @malloc(i64 noundef %10) #3
  store ptr %11, ptr %3, align 8
  br label %12

12:                                               ; preds = %9, %8
  %13 = load ptr, ptr %3, align 8
  ret ptr %13
}

; Function Attrs: nounwind allocsize(0)
declare noalias ptr @malloc(i64 noundef) #1

; Function Attrs: nounwind uwtable
define void @SzFree(ptr noundef %0, ptr noundef %1) #0 {
  %3 = alloca ptr, align 8
  %4 = alloca ptr, align 8
  store ptr %0, ptr %3, align 8
  store ptr %1, ptr %4, align 8
  %5 = load ptr, ptr %4, align 8
  call void @free(ptr noundef %5) #4
  ret void
}

; Function Attrs: nounwind
declare void @free(ptr noundef) #2

; Function Attrs: nounwind uwtable
define ptr @SzAllocTemp(ptr noundef %0, i64 noundef %1) #0 {
  %3 = alloca ptr, align 8
  %4 = alloca ptr, align 8
  %5 = alloca i64, align 8
  store ptr %0, ptr %4, align 8
  store i64 %1, ptr %5, align 8
  %6 = load i64, ptr %5, align 8
  %7 = icmp eq i64 %6, 0
  br i1 %7, label %8, label %9

8:                                                ; preds = %2
  store ptr null, ptr %3, align 8
  br label %12

9:                                                ; preds = %2
  %10 = load i64, ptr %5, align 8
  %11 = call noalias ptr @malloc(i64 noundef %10) #3
  store ptr %11, ptr %3, align 8
  br label %12

12:                                               ; preds = %9, %8
  %13 = load ptr, ptr %3, align 8
  ret ptr %13
}

; Function Attrs: nounwind uwtable
define void @SzFreeTemp(ptr noundef %0, ptr noundef %1) #0 {
  %3 = alloca ptr, align 8
  %4 = alloca ptr, align 8
  store ptr %0, ptr %3, align 8
  store ptr %1, ptr %4, align 8
  %5 = load ptr, ptr %4, align 8
  call void @free(ptr noundef %5) #4
  ret void
}


!llvm.module.flags = !{!0, !1, !2, !3}

!0 = !{i32 1, !"wchar_size", i32 4}
!1 = !{i32 8, !"PIC Level", i32 2}
!2 = !{i32 7, !"uwtable", i32 2}
!3 = !{i32 7, !"frame-pointer", i32 2}
